; Function Attrs: mustprogress nofree nounwind willreturn memory(argmem: write, inaccessiblemem: readwrite) uwtable
define internal range(i32 0, 2) i32 @conn_new(ptr noundef writeonly captures(none) initializes((24, 28), (32, 36), (40, 44), (48, 56)) %0) #4 {
  %2 = getelementptr inbounds nuw i8, ptr %0, i64 24
  store i32 0, ptr %2, align 8, !tbaa !22
  %3 = getelementptr inbounds nuw i8, ptr %0, i64 40
  store i32 -1, ptr %3, align 8, !tbaa !20
  %4 = getelementptr inbounds nuw i8, ptr %0, i64 32
  store i32 0, ptr %4, align 8, !tbaa !21
  %calloc.i = tail call noalias noundef dereferenceable_or_null(176) ptr @calloc(i64 1, i64 176)
  %5 = getelementptr inbounds nuw i8, ptr %0, i64 48
  store ptr %calloc.i, ptr %5, align 8, !tbaa !6
  %6 = icmp ne ptr %calloc.i, null
  %7 = zext i1 %6 to i32
  ret i32 %7
}